
/home/fhilgers/Documents/tmp/newcheckout/amos2024ws03-android-zero-instrumentation/rust/playground/ebpf-test-refactored/target/debug/build/ebpf-test-refactored-6f49466f8bf6fe96/out/ebpf.o:	file format elf64-bpf

Disassembly of section .text:

0000000000000000 <memset>:
       0:	15 03 06 00 00 00 00 00	if r3 == 0x0 goto +0x6 <memset+0x38>
       1:	b7 04 00 00 00 00 00 00	r4 = 0x0
       2:	bf 15 00 00 00 00 00 00	r5 = r1
       3:	0f 45 00 00 00 00 00 00	r5 += r4
       4:	73 25 00 00 00 00 00 00	*(u8 *)(r5 + 0x0) = r2
       5:	07 04 00 00 01 00 00 00	r4 += 0x1
       6:	2d 43 fb ff 00 00 00 00	if r3 > r4 goto -0x5 <memset+0x10>
       7:	95 00 00 00 00 00 00 00	exit

0000000000000040 <memcpy>:
       8:	15 03 09 00 00 00 00 00	if r3 == 0x0 goto +0x9 <memcpy+0x50>
       9:	b7 04 00 00 00 00 00 00	r4 = 0x0
      10:	bf 15 00 00 00 00 00 00	r5 = r1
      11:	0f 45 00 00 00 00 00 00	r5 += r4
      12:	bf 20 00 00 00 00 00 00	r0 = r2
      13:	0f 40 00 00 00 00 00 00	r0 += r4
      14:	71 00 00 00 00 00 00 00	r0 = *(u8 *)(r0 + 0x0)
      15:	73 05 00 00 00 00 00 00	*(u8 *)(r5 + 0x0) = r0
      16:	07 04 00 00 01 00 00 00	r4 += 0x1
      17:	2d 43 f8 ff 00 00 00 00	if r3 > r4 goto -0x8 <memcpy+0x10>
      18:	95 00 00 00 00 00 00 00	exit

0000000000000098 <memmove>:
      19:	bf 14 00 00 00 00 00 00	r4 = r1
      20:	1f 24 00 00 00 00 00 00	r4 -= r2
      21:	3d 34 0b 00 00 00 00 00	if r4 >= r3 goto +0xb <memmove+0x70>
      22:	07 02 00 00 ff ff ff ff	r2 += -0x1
      23:	07 01 00 00 ff ff ff ff	r1 += -0x1
      24:	bf 14 00 00 00 00 00 00	r4 = r1
      25:	0f 34 00 00 00 00 00 00	r4 += r3
      26:	bf 25 00 00 00 00 00 00	r5 = r2
      27:	0f 35 00 00 00 00 00 00	r5 += r3
      28:	71 55 00 00 00 00 00 00	r5 = *(u8 *)(r5 + 0x0)
      29:	73 54 00 00 00 00 00 00	*(u8 *)(r4 + 0x0) = r5
      30:	07 03 00 00 ff ff ff ff	r3 += -0x1
      31:	55 03 f8 ff 00 00 00 00	if r3 != 0x0 goto -0x8 <memmove+0x28>
      32:	05 00 0a 00 00 00 00 00	goto +0xa <memmove+0xc0>
      33:	15 03 09 00 00 00 00 00	if r3 == 0x0 goto +0x9 <memmove+0xc0>
      34:	b7 04 00 00 00 00 00 00	r4 = 0x0
      35:	bf 15 00 00 00 00 00 00	r5 = r1
      36:	0f 45 00 00 00 00 00 00	r5 += r4
      37:	bf 20 00 00 00 00 00 00	r0 = r2
      38:	0f 40 00 00 00 00 00 00	r0 += r4
      39:	71 00 00 00 00 00 00 00	r0 = *(u8 *)(r0 + 0x0)
      40:	73 05 00 00 00 00 00 00	*(u8 *)(r5 + 0x0) = r0
      41:	07 04 00 00 01 00 00 00	r4 += 0x1
      42:	2d 43 f8 ff 00 00 00 00	if r3 > r4 goto -0x8 <memmove+0x80>
      43:	95 00 00 00 00 00 00 00	exit

Disassembly of section raw_tp:

0000000000000000 <sched_process_fork>:
       0:	bf 16 00 00 00 00 00 00	r6 = r1
       1:	b7 07 00 00 00 00 00 00	r7 = 0x0
       2:	63 7a f8 ff 00 00 00 00	*(u32 *)(r10 - 0x8) = r7
       3:	bf a2 00 00 00 00 00 00	r2 = r10
       4:	07 02 00 00 f8 ff ff ff	r2 += -0x8
       5:	18 01 00 00 00 00 00 00 00 00 00 00 00 00 00 00	r1 = 0x0 ll
       7:	85 00 00 00 01 00 00 00	call 0x1
       8:	15 00 ea 00 00 00 00 00	if r0 == 0x0 goto +0xea <sched_process_fork+0x798>
       9:	73 70 02 00 00 00 00 00	*(u8 *)(r0 + 0x2) = r7
      10:	b7 02 00 00 19 00 00 00	r2 = 0x19
      11:	73 20 01 00 00 00 00 00	*(u8 *)(r0 + 0x1) = r2
      12:	b7 01 00 00 01 00 00 00	r1 = 0x1
      13:	73 10 00 00 00 00 00 00	*(u8 *)(r0 + 0x0) = r1
      14:	bf 03 00 00 00 00 00 00	r3 = r0
      15:	07 03 00 00 03 00 00 00	r3 += 0x3
      16:	18 04 00 00 00 00 00 00 00 00 00 00 00 00 00 00	r4 = 0x0 ll
      18:	71 45 00 00 00 00 00 00	r5 = *(u8 *)(r4 + 0x0)
      19:	73 53 00 00 00 00 00 00	*(u8 *)(r3 + 0x0) = r5
      20:	71 45 01 00 00 00 00 00	r5 = *(u8 *)(r4 + 0x1)
      21:	73 53 01 00 00 00 00 00	*(u8 *)(r3 + 0x1) = r5
      22:	71 45 02 00 00 00 00 00	r5 = *(u8 *)(r4 + 0x2)
      23:	73 53 02 00 00 00 00 00	*(u8 *)(r3 + 0x2) = r5
      24:	71 45 03 00 00 00 00 00	r5 = *(u8 *)(r4 + 0x3)
      25:	73 53 03 00 00 00 00 00	*(u8 *)(r3 + 0x3) = r5
      26:	71 45 04 00 00 00 00 00	r5 = *(u8 *)(r4 + 0x4)
      27:	73 53 04 00 00 00 00 00	*(u8 *)(r3 + 0x4) = r5
      28:	71 45 05 00 00 00 00 00	r5 = *(u8 *)(r4 + 0x5)
      29:	73 53 05 00 00 00 00 00	*(u8 *)(r3 + 0x5) = r5
      30:	71 45 06 00 00 00 00 00	r5 = *(u8 *)(r4 + 0x6)
      31:	73 53 06 00 00 00 00 00	*(u8 *)(r3 + 0x6) = r5
      32:	71 45 07 00 00 00 00 00	r5 = *(u8 *)(r4 + 0x7)
      33:	73 53 07 00 00 00 00 00	*(u8 *)(r3 + 0x7) = r5
      34:	71 45 08 00 00 00 00 00	r5 = *(u8 *)(r4 + 0x8)
      35:	73 53 08 00 00 00 00 00	*(u8 *)(r3 + 0x8) = r5
      36:	71 45 09 00 00 00 00 00	r5 = *(u8 *)(r4 + 0x9)
      37:	73 53 09 00 00 00 00 00	*(u8 *)(r3 + 0x9) = r5
      38:	71 45 0a 00 00 00 00 00	r5 = *(u8 *)(r4 + 0xa)
      39:	73 53 0a 00 00 00 00 00	*(u8 *)(r3 + 0xa) = r5
      40:	71 45 0b 00 00 00 00 00	r5 = *(u8 *)(r4 + 0xb)
      41:	73 53 0b 00 00 00 00 00	*(u8 *)(r3 + 0xb) = r5
      42:	71 45 0c 00 00 00 00 00	r5 = *(u8 *)(r4 + 0xc)
      43:	73 53 0c 00 00 00 00 00	*(u8 *)(r3 + 0xc) = r5
      44:	71 45 0d 00 00 00 00 00	r5 = *(u8 *)(r4 + 0xd)
      45:	73 53 0d 00 00 00 00 00	*(u8 *)(r3 + 0xd) = r5
      46:	71 45 0e 00 00 00 00 00	r5 = *(u8 *)(r4 + 0xe)
      47:	73 53 0e 00 00 00 00 00	*(u8 *)(r3 + 0xe) = r5
      48:	71 45 0f 00 00 00 00 00	r5 = *(u8 *)(r4 + 0xf)
      49:	73 53 0f 00 00 00 00 00	*(u8 *)(r3 + 0xf) = r5
      50:	71 45 10 00 00 00 00 00	r5 = *(u8 *)(r4 + 0x10)
      51:	73 53 10 00 00 00 00 00	*(u8 *)(r3 + 0x10) = r5
      52:	71 45 11 00 00 00 00 00	r5 = *(u8 *)(r4 + 0x11)
      53:	73 53 11 00 00 00 00 00	*(u8 *)(r3 + 0x11) = r5
      54:	71 45 12 00 00 00 00 00	r5 = *(u8 *)(r4 + 0x12)
      55:	73 53 12 00 00 00 00 00	*(u8 *)(r3 + 0x12) = r5
      56:	71 45 13 00 00 00 00 00	r5 = *(u8 *)(r4 + 0x13)
      57:	73 53 13 00 00 00 00 00	*(u8 *)(r3 + 0x13) = r5
      58:	71 45 14 00 00 00 00 00	r5 = *(u8 *)(r4 + 0x14)
      59:	73 53 14 00 00 00 00 00	*(u8 *)(r3 + 0x14) = r5
      60:	71 45 15 00 00 00 00 00	r5 = *(u8 *)(r4 + 0x15)
      61:	73 53 15 00 00 00 00 00	*(u8 *)(r3 + 0x15) = r5
      62:	71 45 16 00 00 00 00 00	r5 = *(u8 *)(r4 + 0x16)
      63:	73 53 16 00 00 00 00 00	*(u8 *)(r3 + 0x16) = r5
      64:	71 45 17 00 00 00 00 00	r5 = *(u8 *)(r4 + 0x17)
      65:	73 53 17 00 00 00 00 00	*(u8 *)(r3 + 0x17) = r5
      66:	71 45 18 00 00 00 00 00	r5 = *(u8 *)(r4 + 0x18)
      67:	73 53 18 00 00 00 00 00	*(u8 *)(r3 + 0x18) = r5
      68:	73 20 21 00 00 00 00 00	*(u8 *)(r0 + 0x21) = r2
      69:	b7 02 00 00 03 00 00 00	r2 = 0x3
      70:	73 20 20 00 00 00 00 00	*(u8 *)(r0 + 0x20) = r2
      71:	73 20 1f 00 00 00 00 00	*(u8 *)(r0 + 0x1f) = r2
      72:	b7 02 00 00 02 00 00 00	r2 = 0x2
      73:	73 20 1c 00 00 00 00 00	*(u8 *)(r0 + 0x1c) = r2
      74:	73 70 22 00 00 00 00 00	*(u8 *)(r0 + 0x22) = r7
      75:	73 70 1e 00 00 00 00 00	*(u8 *)(r0 + 0x1e) = r7
      76:	73 10 1d 00 00 00 00 00	*(u8 *)(r0 + 0x1d) = r1
      77:	bf 02 00 00 00 00 00 00	r2 = r0
      78:	07 02 00 00 23 00 00 00	r2 += 0x23
      79:	71 43 00 00 00 00 00 00	r3 = *(u8 *)(r4 + 0x0)
      80:	73 32 00 00 00 00 00 00	*(u8 *)(r2 + 0x0) = r3
      81:	71 43 01 00 00 00 00 00	r3 = *(u8 *)(r4 + 0x1)
      82:	73 32 01 00 00 00 00 00	*(u8 *)(r2 + 0x1) = r3
      83:	71 43 02 00 00 00 00 00	r3 = *(u8 *)(r4 + 0x2)
      84:	73 32 02 00 00 00 00 00	*(u8 *)(r2 + 0x2) = r3
      85:	71 43 03 00 00 00 00 00	r3 = *(u8 *)(r4 + 0x3)
      86:	73 32 03 00 00 00 00 00	*(u8 *)(r2 + 0x3) = r3
      87:	71 43 04 00 00 00 00 00	r3 = *(u8 *)(r4 + 0x4)
      88:	73 32 04 00 00 00 00 00	*(u8 *)(r2 + 0x4) = r3
      89:	71 43 05 00 00 00 00 00	r3 = *(u8 *)(r4 + 0x5)
      90:	73 32 05 00 00 00 00 00	*(u8 *)(r2 + 0x5) = r3
      91:	71 43 06 00 00 00 00 00	r3 = *(u8 *)(r4 + 0x6)
      92:	73 32 06 00 00 00 00 00	*(u8 *)(r2 + 0x6) = r3
      93:	71 43 07 00 00 00 00 00	r3 = *(u8 *)(r4 + 0x7)
      94:	73 32 07 00 00 00 00 00	*(u8 *)(r2 + 0x7) = r3
      95:	71 43 08 00 00 00 00 00	r3 = *(u8 *)(r4 + 0x8)
      96:	73 32 08 00 00 00 00 00	*(u8 *)(r2 + 0x8) = r3
      97:	71 43 09 00 00 00 00 00	r3 = *(u8 *)(r4 + 0x9)
      98:	73 32 09 00 00 00 00 00	*(u8 *)(r2 + 0x9) = r3
      99:	71 43 0a 00 00 00 00 00	r3 = *(u8 *)(r4 + 0xa)
     100:	73 32 0a 00 00 00 00 00	*(u8 *)(r2 + 0xa) = r3
     101:	71 43 0b 00 00 00 00 00	r3 = *(u8 *)(r4 + 0xb)
     102:	73 32 0b 00 00 00 00 00	*(u8 *)(r2 + 0xb) = r3
     103:	71 43 0c 00 00 00 00 00	r3 = *(u8 *)(r4 + 0xc)
     104:	73 32 0c 00 00 00 00 00	*(u8 *)(r2 + 0xc) = r3
     105:	71 43 0d 00 00 00 00 00	r3 = *(u8 *)(r4 + 0xd)
     106:	73 32 0d 00 00 00 00 00	*(u8 *)(r2 + 0xd) = r3
     107:	71 43 0e 00 00 00 00 00	r3 = *(u8 *)(r4 + 0xe)
     108:	73 32 0e 00 00 00 00 00	*(u8 *)(r2 + 0xe) = r3
     109:	71 43 0f 00 00 00 00 00	r3 = *(u8 *)(r4 + 0xf)
     110:	73 32 0f 00 00 00 00 00	*(u8 *)(r2 + 0xf) = r3
     111:	71 43 10 00 00 00 00 00	r3 = *(u8 *)(r4 + 0x10)
     112:	73 32 10 00 00 00 00 00	*(u8 *)(r2 + 0x10) = r3
     113:	71 43 11 00 00 00 00 00	r3 = *(u8 *)(r4 + 0x11)
     114:	73 32 11 00 00 00 00 00	*(u8 *)(r2 + 0x11) = r3
     115:	71 43 12 00 00 00 00 00	r3 = *(u8 *)(r4 + 0x12)
     116:	73 32 12 00 00 00 00 00	*(u8 *)(r2 + 0x12) = r3
     117:	71 43 13 00 00 00 00 00	r3 = *(u8 *)(r4 + 0x13)
     118:	73 32 13 00 00 00 00 00	*(u8 *)(r2 + 0x13) = r3
     119:	71 43 14 00 00 00 00 00	r3 = *(u8 *)(r4 + 0x14)
     120:	73 32 14 00 00 00 00 00	*(u8 *)(r2 + 0x14) = r3
     121:	71 43 15 00 00 00 00 00	r3 = *(u8 *)(r4 + 0x15)
     122:	73 32 15 00 00 00 00 00	*(u8 *)(r2 + 0x15) = r3
     123:	71 43 16 00 00 00 00 00	r3 = *(u8 *)(r4 + 0x16)
     124:	73 32 16 00 00 00 00 00	*(u8 *)(r2 + 0x16) = r3
     125:	71 43 17 00 00 00 00 00	r3 = *(u8 *)(r4 + 0x17)
     126:	73 32 17 00 00 00 00 00	*(u8 *)(r2 + 0x17) = r3
     127:	71 43 18 00 00 00 00 00	r3 = *(u8 *)(r4 + 0x18)
     128:	73 32 18 00 00 00 00 00	*(u8 *)(r2 + 0x18) = r3
     129:	b7 02 00 00 0f 00 00 00	r2 = 0xf
     130:	73 20 3d 00 00 00 00 00	*(u8 *)(r0 + 0x3d) = r2
     131:	73 70 3e 00 00 00 00 00	*(u8 *)(r0 + 0x3e) = r7
     132:	b7 02 00 00 04 00 00 00	r2 = 0x4
     133:	73 20 3c 00 00 00 00 00	*(u8 *)(r0 + 0x3c) = r2
     134:	bf 03 00 00 00 00 00 00	r3 = r0
     135:	07 03 00 00 3f 00 00 00	r3 += 0x3f
     136:	18 04 00 00 19 00 00 00 00 00 00 00 00 00 00 00	r4 = 0x19 ll
     138:	71 45 00 00 00 00 00 00	r5 = *(u8 *)(r4 + 0x0)
     139:	73 53 00 00 00 00 00 00	*(u8 *)(r3 + 0x0) = r5
     140:	71 45 01 00 00 00 00 00	r5 = *(u8 *)(r4 + 0x1)
     141:	73 53 01 00 00 00 00 00	*(u8 *)(r3 + 0x1) = r5
     142:	71 45 02 00 00 00 00 00	r5 = *(u8 *)(r4 + 0x2)
     143:	73 53 02 00 00 00 00 00	*(u8 *)(r3 + 0x2) = r5
     144:	71 45 03 00 00 00 00 00	r5 = *(u8 *)(r4 + 0x3)
     145:	73 53 03 00 00 00 00 00	*(u8 *)(r3 + 0x3) = r5
     146:	71 45 04 00 00 00 00 00	r5 = *(u8 *)(r4 + 0x4)
     147:	73 53 04 00 00 00 00 00	*(u8 *)(r3 + 0x4) = r5
     148:	71 45 05 00 00 00 00 00	r5 = *(u8 *)(r4 + 0x5)
     149:	73 53 05 00 00 00 00 00	*(u8 *)(r3 + 0x5) = r5
     150:	71 45 06 00 00 00 00 00	r5 = *(u8 *)(r4 + 0x6)
     151:	73 53 06 00 00 00 00 00	*(u8 *)(r3 + 0x6) = r5
     152:	71 45 07 00 00 00 00 00	r5 = *(u8 *)(r4 + 0x7)
     153:	73 53 07 00 00 00 00 00	*(u8 *)(r3 + 0x7) = r5
     154:	71 45 08 00 00 00 00 00	r5 = *(u8 *)(r4 + 0x8)
     155:	73 53 08 00 00 00 00 00	*(u8 *)(r3 + 0x8) = r5
     156:	71 45 09 00 00 00 00 00	r5 = *(u8 *)(r4 + 0x9)
     157:	73 53 09 00 00 00 00 00	*(u8 *)(r3 + 0x9) = r5
     158:	71 45 0a 00 00 00 00 00	r5 = *(u8 *)(r4 + 0xa)
     159:	73 53 0a 00 00 00 00 00	*(u8 *)(r3 + 0xa) = r5
     160:	71 45 0b 00 00 00 00 00	r5 = *(u8 *)(r4 + 0xb)
     161:	73 53 0b 00 00 00 00 00	*(u8 *)(r3 + 0xb) = r5
     162:	71 45 0c 00 00 00 00 00	r5 = *(u8 *)(r4 + 0xc)
     163:	73 53 0c 00 00 00 00 00	*(u8 *)(r3 + 0xc) = r5
     164:	71 45 0d 00 00 00 00 00	r5 = *(u8 *)(r4 + 0xd)
     165:	73 53 0d 00 00 00 00 00	*(u8 *)(r3 + 0xd) = r5
     166:	71 45 0e 00 00 00 00 00	r5 = *(u8 *)(r4 + 0xe)
     167:	73 53 0e 00 00 00 00 00	*(u8 *)(r3 + 0xe) = r5
     168:	b7 03 00 00 12 00 00 00	r3 = 0x12
     169:	73 30 61 00 00 00 00 00	*(u8 *)(r0 + 0x61) = r3
     170:	73 10 58 00 00 00 00 00	*(u8 *)(r0 + 0x58) = r1
     171:	b7 01 00 00 08 00 00 00	r1 = 0x8
     172:	73 10 56 00 00 00 00 00	*(u8 *)(r0 + 0x56) = r1
     173:	b7 01 00 00 33 00 00 00	r1 = 0x33
     174:	73 10 51 00 00 00 00 00	*(u8 *)(r0 + 0x51) = r1
     175:	73 70 62 00 00 00 00 00	*(u8 *)(r0 + 0x62) = r7
     176:	73 70 5f 00 00 00 00 00	*(u8 *)(r0 + 0x5f) = r7
     177:	73 70 5e 00 00 00 00 00	*(u8 *)(r0 + 0x5e) = r7
     178:	73 70 5d 00 00 00 00 00	*(u8 *)(r0 + 0x5d) = r7
     179:	73 70 5c 00 00 00 00 00	*(u8 *)(r0 + 0x5c) = r7
     180:	73 70 5b 00 00 00 00 00	*(u8 *)(r0 + 0x5b) = r7
     181:	73 70 5a 00 00 00 00 00	*(u8 *)(r0 + 0x5a) = r7
     182:	73 70 59 00 00 00 00 00	*(u8 *)(r0 + 0x59) = r7
     183:	73 70 57 00 00 00 00 00	*(u8 *)(r0 + 0x57) = r7
     184:	73 70 54 00 00 00 00 00	*(u8 *)(r0 + 0x54) = r7
     185:	73 70 53 00 00 00 00 00	*(u8 *)(r0 + 0x53) = r7
     186:	73 70 52 00 00 00 00 00	*(u8 *)(r0 + 0x52) = r7
     187:	73 70 50 00 00 00 00 00	*(u8 *)(r0 + 0x50) = r7
     188:	73 20 4f 00 00 00 00 00	*(u8 *)(r0 + 0x4f) = r2
     189:	b7 01 00 00 14 00 00 00	r1 = 0x14
     190:	73 10 60 00 00 00 00 00	*(u8 *)(r0 + 0x60) = r1
     191:	b7 01 00 00 06 00 00 00	r1 = 0x6
     192:	73 10 55 00 00 00 00 00	*(u8 *)(r0 + 0x55) = r1
     193:	b7 01 00 00 05 00 00 00	r1 = 0x5
     194:	73 10 4e 00 00 00 00 00	*(u8 *)(r0 + 0x4e) = r1
     195:	bf 01 00 00 00 00 00 00	r1 = r0
     196:	07 01 00 00 63 00 00 00	r1 += 0x63
     197:	18 02 00 00 28 00 00 00 00 00 00 00 00 00 00 00	r2 = 0x28 ll
     199:	71 23 00 00 00 00 00 00	r3 = *(u8 *)(r2 + 0x0)
     200:	73 31 00 00 00 00 00 00	*(u8 *)(r1 + 0x0) = r3
     201:	71 23 01 00 00 00 00 00	r3 = *(u8 *)(r2 + 0x1)
     202:	73 31 01 00 00 00 00 00	*(u8 *)(r1 + 0x1) = r3
     203:	71 23 02 00 00 00 00 00	r3 = *(u8 *)(r2 + 0x2)
     204:	73 31 02 00 00 00 00 00	*(u8 *)(r1 + 0x2) = r3
     205:	71 23 03 00 00 00 00 00	r3 = *(u8 *)(r2 + 0x3)
     206:	73 31 03 00 00 00 00 00	*(u8 *)(r1 + 0x3) = r3
     207:	71 23 04 00 00 00 00 00	r3 = *(u8 *)(r2 + 0x4)
     208:	73 31 04 00 00 00 00 00	*(u8 *)(r1 + 0x4) = r3
     209:	71 23 05 00 00 00 00 00	r3 = *(u8 *)(r2 + 0x5)
     210:	73 31 05 00 00 00 00 00	*(u8 *)(r1 + 0x5) = r3
     211:	71 23 06 00 00 00 00 00	r3 = *(u8 *)(r2 + 0x6)
     212:	73 31 06 00 00 00 00 00	*(u8 *)(r1 + 0x6) = r3
     213:	71 23 07 00 00 00 00 00	r3 = *(u8 *)(r2 + 0x7)
     214:	73 31 07 00 00 00 00 00	*(u8 *)(r1 + 0x7) = r3
     215:	71 23 08 00 00 00 00 00	r3 = *(u8 *)(r2 + 0x8)
     216:	73 31 08 00 00 00 00 00	*(u8 *)(r1 + 0x8) = r3
     217:	71 23 09 00 00 00 00 00	r3 = *(u8 *)(r2 + 0x9)
     218:	73 31 09 00 00 00 00 00	*(u8 *)(r1 + 0x9) = r3
     219:	71 23 0a 00 00 00 00 00	r3 = *(u8 *)(r2 + 0xa)
     220:	73 31 0a 00 00 00 00 00	*(u8 *)(r1 + 0xa) = r3
     221:	71 23 0b 00 00 00 00 00	r3 = *(u8 *)(r2 + 0xb)
     222:	73 31 0b 00 00 00 00 00	*(u8 *)(r1 + 0xb) = r3
     223:	71 23 0c 00 00 00 00 00	r3 = *(u8 *)(r2 + 0xc)
     224:	73 31 0c 00 00 00 00 00	*(u8 *)(r1 + 0xc) = r3
     225:	71 23 0d 00 00 00 00 00	r3 = *(u8 *)(r2 + 0xd)
     226:	73 31 0d 00 00 00 00 00	*(u8 *)(r1 + 0xd) = r3
     227:	71 23 0e 00 00 00 00 00	r3 = *(u8 *)(r2 + 0xe)
     228:	73 31 0e 00 00 00 00 00	*(u8 *)(r1 + 0xe) = r3
     229:	71 23 0f 00 00 00 00 00	r3 = *(u8 *)(r2 + 0xf)
     230:	73 31 0f 00 00 00 00 00	*(u8 *)(r1 + 0xf) = r3
     231:	71 23 10 00 00 00 00 00	r3 = *(u8 *)(r2 + 0x10)
     232:	73 31 10 00 00 00 00 00	*(u8 *)(r1 + 0x10) = r3
     233:	71 23 11 00 00 00 00 00	r3 = *(u8 *)(r2 + 0x11)
     234:	73 31 11 00 00 00 00 00	*(u8 *)(r1 + 0x11) = r3
     235:	bf 61 00 00 00 00 00 00	r1 = r6
     236:	18 02 00 00 00 00 00 00 00 00 00 00 00 00 00 00	r2 = 0x0 ll
     238:	18 03 00 00 ff ff ff ff 00 00 00 00 00 00 00 00	r3 = 0xffffffff ll
     240:	bf 04 00 00 00 00 00 00	r4 = r0
     241:	b7 05 00 00 75 00 00 00	r5 = 0x75
     242:	85 00 00 00 19 00 00 00	call 0x19
     243:	85 00 00 00 23 00 00 00	call 0x23
     244:	b7 01 00 00 08 00 00 00	r1 = 0x8
     245:	0f 10 00 00 00 00 00 00	r0 += r1
     246:	bf a1 00 00 00 00 00 00	r1 = r10
     247:	07 01 00 00 fc ff ff ff	r1 += -0x4
     248:	b7 02 00 00 04 00 00 00	r2 = 0x4
     249:	bf 03 00 00 00 00 00 00	r3 = r0
     250:	85 00 00 00 71 00 00 00	call 0x71
     251:	b7 00 00 00 00 00 00 00	r0 = 0x0
     252:	95 00 00 00 00 00 00 00	exit

Disassembly of section .relraw_tp:

0000000000000000 <.relraw_tp>:
       0:	28 00 00 00 00 00 00 00	r0 = *(u16 *)skb[0x0]
       1:	01 00 00 00 0d 00 00 00	<unknown>
       2:	80 00 00 00 00 00 00 00	<unknown>
       3:	01 00 00 00 07 00 00 00	<unknown>
       4:	40 04 00 00 00 00 00 00	r0 = *(u32 *)skb[r0]
       5:	01 00 00 00 07 00 00 00	<unknown>
       6:	28 06 00 00 00 00 00 00	r0 = *(u16 *)skb[0x0]
       7:	01 00 00 00 07 00 00 00	<unknown>
       8:	60 07 00 00 00 00 00 00	<unknown>
       9:	01 00 00 00 0e 00 00 00	<unknown>

Disassembly of section maps:

0000000000000000 <TASK_INFO>:
       0:	09 00 00 00 04 00 00 00	<unknown>
       1:	1c 01 00 00 00 28 00 00	w1 -= w0
		...

000000000000001c <TASK_INFO_SCRATCH>:
       3:	06 00 00 00 04 00 00 00	gotol +0x4 <AYA_LOG_BUF+0xc>
       4:	1c 01 00 00 01 00 00 00	w1 -= w0
		...

0000000000000038 <AYA_LOG_BUF>:
       7:	06 00 00 00 04 00 00 00	gotol +0x4 <AYA_LOGS+0xc>
       8:	00 20 00 00 01 00 00 00	<unknown>
		...

0000000000000054 <AYA_LOGS>:
      10:	04 00 00 00 04 00 00 00	w0 += 0x4
      11:	04 00 00 00 00 00 00 00	w0 += 0x0
		...

Disassembly of section .BTF:

0000000000000000 <.BTF>:
       0:	9f eb 01 00 18 00 00 00	<unknown>
       1:	00 00 00 00 f4 00 00 00	<unknown>
       2:	f4 00 00 00 88 00 00 00	<unknown>
       3:	01 00 00 00 07 00 00 04	<unknown>
       4:	38 00 00 00 0d 00 00 00	<unknown>
       5:	02 00 00 00 00 00 00 00	<unknown>
       6:	10 00 00 00 03 00 00 00	<unknown>
       7:	40 00 00 00 14 00 00 00	r0 = *(u32 *)skb[r0]
       8:	03 00 00 00 60 00 00 00	<unknown>
       9:	19 00 00 00 05 00 00 00	<unknown>
      10:	80 00 00 00 24 00 00 00	<unknown>
      11:	08 00 00 00 c0 00 00 00	<unknown>
      12:	29 00 00 00 0a 00 00 00	<unknown>
      13:	40 01 00 00 35 00 00 00	r0 = *(u32 *)skb[r0]
      14:	0a 00 00 00 80 01 00 00	<unknown>
      15:	00 00 00 00 00 00 00 02	<unknown>
      16:	0b 00 00 00 42 00 00 00	<unknown>
      17:	00 00 00 08 04 00 00 00	<unknown>
      18:	46 00 00 00 00 00 00 01	if w0 & 0x1000000 goto +0x0 <.BTF+0x98>
      19:	04 00 00 00 20 00 00 01	w0 += 0x1000020
      20:	4a 00 00 00 00 00 00 08	<unknown>
      21:	06 00 00 00 4e 00 00 00	gotol +0x4e <.BTF+0x320>
      22:	00 00 00 01 08 00 00 00	<unknown>
      23:	40 00 00 00 61 00 00 00	r0 = *(u32 *)skb[r0]
      24:	00 00 00 01 01 00 00 00	<unknown>
      25:	08 00 00 01 00 00 00 00	<unknown>
      26:	00 00 00 03 00 00 00 00	<unknown>
      27:	07 00 00 00 09 00 00 00	r0 += 0x9
      28:	10 00 00 00 66 00 00 00	<unknown>
      29:	00 00 00 01 04 00 00 00	<unknown>
      30:	20 00 00 00 00 00 00 00	r0 = *(u32 *)skb[0x0]
      31:	00 00 00 02 01 00 00 00	<unknown>
      32:	7e 00 00 00 00 00 00 07	if w0 s>= w0 goto +0x0 <.BTF+0x108>
      33:	00 00 00 00 00 74 61 73	<unknown>
      34:	6b 5f 73 74 72 75 63 74	<unknown>
      35:	00 6d 6d 00 70 69 64 00	<unknown>
      36:	74 67 69 64 00 73 74 61	<unknown>
      37:	72 74 5f 74 69 6d 65 00	*(u8 *)(r4 + 0x745f) = 0x656d69
      38:	63 6f 6d 6d 00 72 65 61	<unknown>
      39:	6c 5f 70 61 72 65 6e 74	<unknown>
      40:	00 67 72 6f 75 70 5f 6c	<unknown>
      41:	65 61 64 65 72 00 73 33	if r1 s> 0x33730072 goto +0x6564 <.BTF+0x32c70>
      42:	32 00 69 6e 74 00 75 36	<unknown>
      43:	34 00 75 6e 73 69 67 6e	<unknown>
      44:	65 64 20 6c 6f 6e 67 20	if r4 s> 0x20676e6f goto +0x6c20 <.BTF+0x36268>
      45:	6c 6f 6e 67 00 63 68 61	<unknown>
      46:	72 00 5f 5f 41 52 52 41	*(u8 *)(r0 + 0x5f5f) = 0x41525241
      47:	59 5f 53 49 5a 45 5f 54	<unknown>
      48:	59 50 45 5f 5f 00 30 3a	<unknown>
      49:	31 00 6d 6d 5f 73 74 72	<unknown>
      50:	75	<unknown>
      50:	63	<unknown>
      50:	74	<unknown>
      50:	00	<unknown>

Disassembly of section .BTF.ext:

0000000000000000 <.BTF.ext>:
       0:	9f eb 01 00 20 00 00 00	<unknown>
       1:	00 00 00 00 04 00 00 00	<unknown>
       2:	04 00 00 00 04 00 00 00	w0 += 0x4
       3:	08 00 00 00 1c 00 00 00	<unknown>
       4:	08 00 00 00 10 00 00 00	<unknown>
       5:	10 00 00 00 00 00 00 00	<unknown>
       6:	01 00 00 00 a0 07 00 00	<unknown>
       7:	01 00 00 00 7a 00 00 00	<unknown>
       8:	00	<unknown>
       8:	00	<unknown>
       8:	00	<unknown>
       8:	00	<unknown>
